; Function Attrs: mustprogress uwtable
define noundef ptr @_Z9mk_matrixiib(i32 noundef %0, i32 noundef %1, i1 noundef zeroext %2) local_unnamed_addr #0 {
  %4 = sext i32 %0 to i64
  %5 = tail call noundef ptr @_Z11save_callocPKcS0_imm(ptr noundef nonnull @.str, ptr noundef nonnull @.str.1, i32 noundef 72, i64 noundef %4, i64 noundef 8)
  br i1 %2, label %6, label %.thread

6:                                                ; preds = %3
  %7 = mul nsw i32 %1, %0
  %8 = sext i32 %7 to i64
  %9 = tail call noundef ptr @_Z11save_callocPKcS0_imm(ptr noundef nonnull @.str.2, ptr noundef nonnull @.str.1, i32 noundef 75, i64 noundef %8, i64 noundef 4)
  store ptr %9, ptr %5, align 8
  %10 = icmp sgt i32 %0, 0
  br i1 %10, label %.lr.ph.split.us.preheader, label %._crit_edge

.thread:                                          ; preds = %3
  %11 = icmp sgt i32 %0, 0
  br i1 %11, label %.lr.ph.split.preheader, label %._crit_edge

.lr.ph.split.preheader:                           ; preds = %.thread
  %12 = sext i32 %1 to i64
  %wide.trip.count = zext nneg i32 %0 to i64
  br label %.lr.ph.split

.lr.ph.split.us.preheader:                        ; preds = %6
  %13 = sext i32 %1 to i64
  %wide.trip.count22 = zext nneg i32 %0 to i64
  br label %.lr.ph.split.us

.lr.ph.split.us:                                  ; preds = %.lr.ph.split.us.preheader, %.lr.ph.split.us
  %indvars.iv19 = phi i64 [ 0, %.lr.ph.split.us.preheader ], [ %indvars.iv.next20, %.lr.ph.split.us ]
  %14 = load ptr, ptr %5, align 8
  %15 = mul nsw i64 %indvars.iv19, %13
  %16 = getelementptr inbounds float, ptr %14, i64 %15
  %17 = getelementptr inbounds ptr, ptr %5, i64 %indvars.iv19
  store ptr %16, ptr %17, align 8
  %indvars.iv.next20 = add nuw nsw i64 %indvars.iv19, 1
  %exitcond23.not = icmp eq i64 %indvars.iv.next20, %wide.trip.count22
  br i1 %exitcond23.not, label %._crit_edge, label %.lr.ph.split.us, !llvm.loop !5

.lr.ph.split:                                     ; preds = %.lr.ph.split.preheader, %.lr.ph.split
  %indvars.iv = phi i64 [ 0, %.lr.ph.split.preheader ], [ %indvars.iv.next, %.lr.ph.split ]
  %18 = getelementptr inbounds ptr, ptr %5, i64 %indvars.iv
  %19 = tail call noundef ptr @_Z11save_callocPKcS0_imm(ptr noundef nonnull @.str.3, ptr noundef nonnull @.str.1, i32 noundef 86, i64 noundef %12, i64 noundef 4)
  store ptr %19, ptr %18, align 8
  %indvars.iv.next = add nuw nsw i64 %indvars.iv, 1
  %exitcond.not = icmp eq i64 %indvars.iv.next, %wide.trip.count
  br i1 %exitcond.not, label %._crit_edge, label %.lr.ph.split, !llvm.loop !5

._crit_edge:                                      ; preds = %.lr.ph.split, %.lr.ph.split.us, %.thread, %6
  ret ptr %5
}